target datalayout = "e-m:e-p270:32:32-p271:32:32-p272:64:64-i64:64-i128:128-f80:128-n8:16:32:64-S128"
target triple = "x86_64-unknown-linux-gnu"

; Function Attrs: nounwind uwtable
define dso_local i32 @anetGetError(i32 noundef %fd) #0 {
entry:
  %fd.addr = alloca i32, align 4
  %sockerr = alloca i32, align 4
  %errlen = alloca i32, align 4
  store i32 %fd, ptr %fd.addr, align 4
  store i32 0, ptr %sockerr, align 4
  store i32 4, ptr %errlen, align 4
  %0 = load i32, ptr %fd.addr, align 4
  %call = call i32 @getsockopt(i32 noundef %0, i32 noundef 1, i32 noundef 4, ptr noundef %sockerr, ptr noundef %errlen) #7
  %cmp = icmp eq i32 %call, -1
  br i1 %cmp, label %if.then, label %if.end

if.then:                                          ; preds = %entry
  %call1 = call ptr @__errno_location() #8
  %1 = load i32, ptr %call1, align 4
  store i32 %1, ptr %sockerr, align 4
  br label %if.end

if.end:                                           ; preds = %if.then, %entry
  %2 = load i32, ptr %sockerr, align 4
  ret i32 %2
}