; Function Attrs: nounwind uwtable
define dso_local i32 @anetGetError(i32 noundef %fd) local_unnamed_addr #0 {
entry:
  %sockerr = alloca i32, align 4
  %errlen = alloca i32, align 4
  store i32 0, ptr %sockerr, align 4
  store i32 4, ptr %errlen, align 4
  %call = call i32 @getsockopt(i32 noundef %fd, i32 noundef 1, i32 noundef 4, ptr noundef nonnull %sockerr, ptr noundef nonnull %errlen) #10
  %cmp = icmp eq i32 %call, -1
  br i1 %cmp, label %if.then, label %if.end

if.then:                                          ; preds = %entry
  %call1 = tail call ptr @__errno_location() #11
  br label %if.end

if.end:                                           ; preds = %entry, %if.then
  %.in = phi ptr [ %call1, %if.then ], [ %sockerr, %entry ]
  %0 = load i32, ptr %.in, align 4
  ret i32 %0
}